; Function Attrs: mustprogress nounwind uwtable
define void @_ZN7rocksdb6WalSet5ResetEv(ptr noundef nonnull align 8 dereferenceable(56) %0) local_unnamed_addr #3 align 2 personality ptr @__gxx_personality_v0 {
  %2 = getelementptr inbounds nuw i8, ptr %0, i64 16
  %3 = load ptr, ptr %2, align 8, !tbaa !94
  invoke void @_ZNSt8_Rb_treeImSt4pairIKmN7rocksdb11WalMetadataEESt10_Select1stIS4_ESt4lessImESaIS4_EE8_M_eraseEPSt13_Rb_tree_nodeIS4_E(ptr noundef nonnull align 8 dereferenceable(48) %0, ptr noundef %3)
          to label %_ZNSt3mapImN7rocksdb11WalMetadataESt4lessImESaISt4pairIKmS1_EEE5clearEv.exit unwind label %4

4:                                                ; preds = %1
  %5 = landingpad { ptr, i32 }
          catch ptr null
  %6 = extractvalue { ptr, i32 } %5, 0
  tail call void @__clang_call_terminate(ptr %6) #21
  unreachable

_ZNSt3mapImN7rocksdb11WalMetadataESt4lessImESaISt4pairIKmS1_EEE5clearEv.exit: ; preds = %1
  %7 = getelementptr inbounds nuw i8, ptr %0, i64 8
  store ptr null, ptr %2, align 8, !tbaa !94
  %8 = getelementptr inbounds nuw i8, ptr %0, i64 24
  store ptr %7, ptr %8, align 8, !tbaa !137
  %9 = getelementptr inbounds nuw i8, ptr %0, i64 32
  store ptr %7, ptr %9, align 8, !tbaa !138
  %10 = getelementptr inbounds nuw i8, ptr %0, i64 40
  tail call void @llvm.memset.p0.i64(ptr noundef nonnull align 8 dereferenceable(16) %10, i8 0, i64 16, i1 false)
  ret void
}